target datalayout = "e-m:e-p270:32:32-p271:32:32-p272:64:64-i64:64-i128:128-f80:128-n8:16:32:64-S128"
target triple = "x86_64-pc-linux-gnu"

%struct.Context = type { i32, i32, i32, i32, i32, i32, i32, i32, i32, i32, i32, i32, ptr, ptr, ptr, [80 x i8], i64, i64, i32, [24 x i32], i64, i64, i32, ptr, ptr, i64, ptr, ptr, ptr, i32, i32, i32, ptr, ptr, ptr, ptr, ptr, i64, ptr, ptr, i64, ptr, i64, ptr, i64, i64, i64, i64 }
%struct.stat = type { i64, i64, i64, i32, i32, i32, i32, i64, i64, i64, i64, %struct.timespec, %struct.timespec, %struct.timespec, [3 x i64] }
%struct.timespec = type { i64, i64 }

@stderr = external global ptr, align 8
@.str.58 = private unnamed_addr constant [4 x i8] c"con\00", align 1
@.str.80 = private unnamed_addr constant [24 x i8] c"fclose failed [%s]: %s\0A\00", align 1
@.str.81 = private unnamed_addr constant [41 x i8] c"setting access bits failed for [%s]: %s\0A\00", align 1
@.str.82 = private unnamed_addr constant [35 x i8] c"setting group failed for [%s]: %s\0A\00", align 1
@.str.83 = private unnamed_addr constant [34 x i8] c"setting user failed for [%s]: %s\0A\00", align 1

; Function Attrs: nounwind uwtable
define internal i32 @CopyTimeStat(ptr noundef %0, ptr noundef %1) #0 {
  %3 = alloca ptr, align 8
  %4 = alloca ptr, align 8
  %5 = alloca [2 x %struct.timespec], align 16
  store ptr %0, ptr %3, align 8, !tbaa !89
  store ptr %1, ptr %4, align 8, !tbaa !56
  call void @llvm.lifetime.start.p0(i64 32, ptr %5) #8
  %6 = load ptr, ptr %3, align 8, !tbaa !89
  %7 = getelementptr inbounds nuw %struct.stat, ptr %6, i32 0, i32 11
  %8 = getelementptr inbounds nuw %struct.timespec, ptr %7, i32 0, i32 0
  %9 = load i64, ptr %8, align 8, !tbaa !91
  %10 = getelementptr inbounds [2 x %struct.timespec], ptr %5, i64 0, i64 0
  %11 = getelementptr inbounds nuw %struct.timespec, ptr %10, i32 0, i32 0
  store i64 %9, ptr %11, align 16, !tbaa !92
  %12 = load ptr, ptr %3, align 8, !tbaa !89
  %13 = getelementptr inbounds nuw %struct.stat, ptr %12, i32 0, i32 11
  %14 = getelementptr inbounds nuw %struct.timespec, ptr %13, i32 0, i32 1
  %15 = load i64, ptr %14, align 8, !tbaa !93
  %16 = getelementptr inbounds [2 x %struct.timespec], ptr %5, i64 0, i64 0
  %17 = getelementptr inbounds nuw %struct.timespec, ptr %16, i32 0, i32 1
  store i64 %15, ptr %17, align 8, !tbaa !94
  %18 = load ptr, ptr %3, align 8, !tbaa !89
  %19 = getelementptr inbounds nuw %struct.stat, ptr %18, i32 0, i32 12
  %20 = getelementptr inbounds nuw %struct.timespec, ptr %19, i32 0, i32 0
  %21 = load i64, ptr %20, align 8, !tbaa !95
  %22 = getelementptr inbounds [2 x %struct.timespec], ptr %5, i64 0, i64 1
  %23 = getelementptr inbounds nuw %struct.timespec, ptr %22, i32 0, i32 0
  store i64 %21, ptr %23, align 16, !tbaa !92
  %24 = load ptr, ptr %3, align 8, !tbaa !89
  %25 = getelementptr inbounds nuw %struct.stat, ptr %24, i32 0, i32 12
  %26 = getelementptr inbounds nuw %struct.timespec, ptr %25, i32 0, i32 1
  %27 = load i64, ptr %26, align 8, !tbaa !96
  %28 = getelementptr inbounds [2 x %struct.timespec], ptr %5, i64 0, i64 1
  %29 = getelementptr inbounds nuw %struct.timespec, ptr %28, i32 0, i32 1
  store i64 %27, ptr %29, align 8, !tbaa !94
  %30 = load ptr, ptr %4, align 8, !tbaa !56
  %31 = getelementptr inbounds [2 x %struct.timespec], ptr %5, i64 0, i64 0
  %32 = call i32 @utimensat(i32 noundef -100, ptr noundef %30, ptr noundef %31, i32 noundef 256) #8
  call void @llvm.lifetime.end.p0(i64 32, ptr %5) #8
  ret i32 %32
}

; Function Attrs: nounwind uwtable
define internal void @CopyStat(ptr noundef %0, ptr noundef %1) #0 {
  %3 = alloca ptr, align 8
  %4 = alloca ptr, align 8
  %5 = alloca %struct.stat, align 8
  %6 = alloca i32, align 4
  %7 = alloca i32, align 4
  store ptr %0, ptr %3, align 8, !tbaa !56
  store ptr %1, ptr %4, align 8, !tbaa !56
  call void @llvm.lifetime.start.p0(i64 144, ptr %5) #8
  call void @llvm.lifetime.start.p0(i64 4, ptr %6) #8
  %8 = load ptr, ptr %3, align 8, !tbaa !56
  %9 = icmp eq ptr %8, null
  br i1 %9, label %13, label %10

10:                                               ; preds = %2
  %11 = load ptr, ptr %4, align 8, !tbaa !56
  %12 = icmp eq ptr %11, null
  br i1 %12, label %13, label %14

13:                                               ; preds = %10, %2
  store i32 1, ptr %7, align 4
  br label %68

14:                                               ; preds = %10
  %15 = load ptr, ptr %3, align 8, !tbaa !56
  %16 = call i32 @stat(ptr noundef %15, ptr noundef %5) #8
  %17 = icmp ne i32 %16, 0
  br i1 %17, label %18, label %19

18:                                               ; preds = %14
  store i32 1, ptr %7, align 4
  br label %68

19:                                               ; preds = %14
  %20 = load ptr, ptr %4, align 8, !tbaa !56
  %21 = call i32 @CopyTimeStat(ptr noundef %5, ptr noundef %20)
  store i32 %21, ptr %6, align 4, !tbaa !4
  %22 = load ptr, ptr %4, align 8, !tbaa !56
  %23 = getelementptr inbounds nuw %struct.stat, ptr %5, i32 0, i32 3
  %24 = load i32, ptr %23, align 8, !tbaa !84
  %25 = and i32 %24, 511
  %26 = call i32 @chmod(ptr noundef %22, i32 noundef %25) #8
  store i32 %26, ptr %6, align 4, !tbaa !4
  %27 = load i32, ptr %6, align 4, !tbaa !4
  %28 = icmp ne i32 %27, 0
  br i1 %28, label %29, label %37

29:                                               ; preds = %19
  %30 = load ptr, ptr @stderr, align 8, !tbaa !53
  %31 = load ptr, ptr %4, align 8, !tbaa !56
  %32 = call ptr @PrintablePath(ptr noundef %31)
  %33 = call ptr @__errno_location() #12
  %34 = load i32, ptr %33, align 4, !tbaa !4
  %35 = call ptr @strerror(i32 noundef %34) #8
  %36 = call i32 (ptr, ptr, ...) @fprintf(ptr noundef %30, ptr noundef @.str.81, ptr noundef %32, ptr noundef %35) #8
  br label %37

37:                                               ; preds = %29, %19
  %38 = load ptr, ptr %4, align 8, !tbaa !56
  %39 = getelementptr inbounds nuw %struct.stat, ptr %5, i32 0, i32 5
  %40 = load i32, ptr %39, align 8, !tbaa !87
  %41 = call i32 @chown(ptr noundef %38, i32 noundef -1, i32 noundef %40) #8
  store i32 %41, ptr %6, align 4, !tbaa !4
  %42 = load i32, ptr %6, align 4, !tbaa !4
  %43 = icmp ne i32 %42, 0
  br i1 %43, label %44, label %52

44:                                               ; preds = %37
  %45 = load ptr, ptr @stderr, align 8, !tbaa !53
  %46 = load ptr, ptr %4, align 8, !tbaa !56
  %47 = call ptr @PrintablePath(ptr noundef %46)
  %48 = call ptr @__errno_location() #12
  %49 = load i32, ptr %48, align 4, !tbaa !4
  %50 = call ptr @strerror(i32 noundef %49) #8
  %51 = call i32 (ptr, ptr, ...) @fprintf(ptr noundef %45, ptr noundef @.str.82, ptr noundef %47, ptr noundef %50) #8
  br label %52

52:                                               ; preds = %44, %37
  %53 = load ptr, ptr %4, align 8, !tbaa !56
  %54 = getelementptr inbounds nuw %struct.stat, ptr %5, i32 0, i32 4
  %55 = load i32, ptr %54, align 4, !tbaa !88
  %56 = call i32 @chown(ptr noundef %53, i32 noundef %55, i32 noundef -1) #8
  store i32 %56, ptr %6, align 4, !tbaa !4
  %57 = load i32, ptr %6, align 4, !tbaa !4
  %58 = icmp ne i32 %57, 0
  br i1 %58, label %59, label %67

59:                                               ; preds = %52
  %60 = load ptr, ptr @stderr, align 8, !tbaa !53
  %61 = load ptr, ptr %4, align 8, !tbaa !56
  %62 = call ptr @PrintablePath(ptr noundef %61)
  %63 = call ptr @__errno_location() #12
  %64 = load i32, ptr %63, align 4, !tbaa !4
  %65 = call ptr @strerror(i32 noundef %64) #8
  %66 = call i32 (ptr, ptr, ...) @fprintf(ptr noundef %60, ptr noundef @.str.83, ptr noundef %62, ptr noundef %65) #8
  br label %67

67:                                               ; preds = %59, %52
  store i32 0, ptr %7, align 4
  br label %68

68:                                               ; preds = %67, %18, %13
  call void @llvm.lifetime.end.p0(i64 4, ptr %6) #8
  call void @llvm.lifetime.end.p0(i64 144, ptr %5) #8
  %69 = load i32, ptr %7, align 4
  switch i32 %69, label %71 [
    i32 0, label %70
    i32 1, label %70
  ]

70:                                               ; preds = %68, %68
  ret void

71:                                               ; preds = %68
  unreachable
}

; Function Attrs: nounwind uwtable
define internal ptr @PrintablePath(ptr noundef %0) #0 {
  %2 = alloca ptr, align 8
  store ptr %0, ptr %2, align 8, !tbaa !56
  %3 = load ptr, ptr %2, align 8, !tbaa !56
  %4 = icmp ne ptr %3, null
  br i1 %4, label %5, label %7

5:                                                ; preds = %1
  %6 = load ptr, ptr %2, align 8, !tbaa !56
  br label %8

7:                                                ; preds = %1
  br label %8

8:                                                ; preds = %7, %5
  %9 = phi ptr [ %6, %5 ], [ @.str.58, %7 ]
  ret ptr %9
}

; Function Attrs: nounwind uwtable
define internal i32 @CloseFiles(ptr noundef %0, i32 noundef %1, i32 noundef %2) #0 {
  %4 = alloca ptr, align 8
  %5 = alloca i32, align 4
  %6 = alloca i32, align 4
  %7 = alloca i32, align 4
  store ptr %0, ptr %4, align 8, !tbaa !57
  store i32 %1, ptr %5, align 4, !tbaa !4
  store i32 %2, ptr %6, align 4, !tbaa !4
  call void @llvm.lifetime.start.p0(i64 4, ptr %7) #8
  store i32 1, ptr %7, align 4, !tbaa !4
  %8 = load ptr, ptr %4, align 8, !tbaa !57
  %9 = getelementptr inbounds nuw %struct.Context, ptr %8, i32 0, i32 8
  %10 = load i32, ptr %9, align 8, !tbaa !25
  %11 = icmp ne i32 %10, 0
  br i1 %11, label %69, label %12

12:                                               ; preds = %3
  %13 = load ptr, ptr %4, align 8, !tbaa !57
  %14 = getelementptr inbounds nuw %struct.Context, ptr %13, i32 0, i32 39
  %15 = load ptr, ptr %14, align 8, !tbaa !51
  %16 = icmp ne ptr %15, null
  br i1 %16, label %17, label %69

17:                                               ; preds = %12
  %18 = load ptr, ptr %4, align 8, !tbaa !57
  %19 = getelementptr inbounds nuw %struct.Context, ptr %18, i32 0, i32 39
  %20 = load ptr, ptr %19, align 8, !tbaa !51
  %21 = call i32 @fclose(ptr noundef %20)
  %22 = icmp ne i32 %21, 0
  br i1 %22, label %23, label %37

23:                                               ; preds = %17
  %24 = load i32, ptr %7, align 4, !tbaa !4
  %25 = icmp ne i32 %24, 0
  br i1 %25, label %26, label %36

26:                                               ; preds = %23
  %27 = load ptr, ptr @stderr, align 8, !tbaa !53
  %28 = load ptr, ptr %4, align 8, !tbaa !57
  %29 = getelementptr inbounds nuw %struct.Context, ptr %28, i32 0, i32 36
  %30 = load ptr, ptr %29, align 8, !tbaa !49
  %31 = call ptr @PrintablePath(ptr noundef %30)
  %32 = call ptr @__errno_location() #12
  %33 = load i32, ptr %32, align 4, !tbaa !4
  %34 = call ptr @strerror(i32 noundef %33) #8
  %35 = call i32 (ptr, ptr, ...) @fprintf(ptr noundef %27, ptr noundef @.str.80, ptr noundef %31, ptr noundef %34) #8
  br label %36

36:                                               ; preds = %26, %23
  store i32 0, ptr %7, align 4, !tbaa !4
  br label %37

37:                                               ; preds = %36, %17
  %38 = load i32, ptr %6, align 4, !tbaa !4
  %39 = icmp ne i32 %38, 0
  br i1 %39, label %40, label %50

40:                                               ; preds = %37
  %41 = load ptr, ptr %4, align 8, !tbaa !57
  %42 = getelementptr inbounds nuw %struct.Context, ptr %41, i32 0, i32 36
  %43 = load ptr, ptr %42, align 8, !tbaa !49
  %44 = icmp ne ptr %43, null
  br i1 %44, label %45, label %50

45:                                               ; preds = %40
  %46 = load ptr, ptr %4, align 8, !tbaa !57
  %47 = getelementptr inbounds nuw %struct.Context, ptr %46, i32 0, i32 36
  %48 = load ptr, ptr %47, align 8, !tbaa !49
  %49 = call i32 @unlink(ptr noundef %48) #8
  br label %50

50:                                               ; preds = %45, %40, %37
  %51 = load i32, ptr %6, align 4, !tbaa !4
  %52 = icmp ne i32 %51, 0
  br i1 %52, label %68, label %53

53:                                               ; preds = %50
  %54 = load i32, ptr %7, align 4, !tbaa !4
  %55 = icmp ne i32 %54, 0
  br i1 %55, label %56, label %68

56:                                               ; preds = %53
  %57 = load ptr, ptr %4, align 8, !tbaa !57
  %58 = getelementptr inbounds nuw %struct.Context, ptr %57, i32 0, i32 6
  %59 = load i32, ptr %58, align 8, !tbaa !24
  %60 = icmp ne i32 %59, 0
  br i1 %60, label %61, label %68

61:                                               ; preds = %56
  %62 = load ptr, ptr %4, align 8, !tbaa !57
  %63 = getelementptr inbounds nuw %struct.Context, ptr %62, i32 0, i32 35
  %64 = load ptr, ptr %63, align 8, !tbaa !48
  %65 = load ptr, ptr %4, align 8, !tbaa !57
  %66 = getelementptr inbounds nuw %struct.Context, ptr %65, i32 0, i32 36
  %67 = load ptr, ptr %66, align 8, !tbaa !49
  call void @CopyStat(ptr noundef %64, ptr noundef %67)
  br label %68

68:                                               ; preds = %61, %56, %53, %50
  br label %69

69:                                               ; preds = %68, %12, %3
  %70 = load ptr, ptr %4, align 8, !tbaa !57
  %71 = getelementptr inbounds nuw %struct.Context, ptr %70, i32 0, i32 38
  %72 = load ptr, ptr %71, align 8, !tbaa !50
  %73 = icmp ne ptr %72, null
  br i1 %73, label %74, label %95

74:                                               ; preds = %69
  %75 = load ptr, ptr %4, align 8, !tbaa !57
  %76 = getelementptr inbounds nuw %struct.Context, ptr %75, i32 0, i32 38
  %77 = load ptr, ptr %76, align 8, !tbaa !50
  %78 = call i32 @fclose(ptr noundef %77)
  %79 = icmp ne i32 %78, 0
  br i1 %79, label %80, label %94

80:                                               ; preds = %74
  %81 = load i32, ptr %7, align 4, !tbaa !4
  %82 = icmp ne i32 %81, 0
  br i1 %82, label %83, label %93

83:                                               ; preds = %80
  %84 = load ptr, ptr @stderr, align 8, !tbaa !53
  %85 = load ptr, ptr %4, align 8, !tbaa !57
  %86 = getelementptr inbounds nuw %struct.Context, ptr %85, i32 0, i32 35
  %87 = load ptr, ptr %86, align 8, !tbaa !48
  %88 = call ptr @PrintablePath(ptr noundef %87)
  %89 = call ptr @__errno_location() #12
  %90 = load i32, ptr %89, align 4, !tbaa !4
  %91 = call ptr @strerror(i32 noundef %90) #8
  %92 = call i32 (ptr, ptr, ...) @fprintf(ptr noundef %84, ptr noundef @.str.80, ptr noundef %88, ptr noundef %91) #8
  br label %93

93:                                               ; preds = %83, %80
  store i32 0, ptr %7, align 4, !tbaa !4
  br label %94

94:                                               ; preds = %93, %74
  br label %95

95:                                               ; preds = %94, %69
  %96 = load i32, ptr %5, align 4, !tbaa !4
  %97 = icmp ne i32 %96, 0
  br i1 %97, label %98, label %108

98:                                               ; preds = %95
  %99 = load ptr, ptr %4, align 8, !tbaa !57
  %100 = getelementptr inbounds nuw %struct.Context, ptr %99, i32 0, i32 35
  %101 = load ptr, ptr %100, align 8, !tbaa !48
  %102 = icmp ne ptr %101, null
  br i1 %102, label %103, label %108

103:                                              ; preds = %98
  %104 = load ptr, ptr %4, align 8, !tbaa !57
  %105 = getelementptr inbounds nuw %struct.Context, ptr %104, i32 0, i32 35
  %106 = load ptr, ptr %105, align 8, !tbaa !48
  %107 = call i32 @unlink(ptr noundef %106) #8
  br label %108

108:                                              ; preds = %103, %98, %95
  %109 = load ptr, ptr %4, align 8, !tbaa !57
  %110 = getelementptr inbounds nuw %struct.Context, ptr %109, i32 0, i32 38
  store ptr null, ptr %110, align 8, !tbaa !50
  %111 = load ptr, ptr %4, align 8, !tbaa !57
  %112 = getelementptr inbounds nuw %struct.Context, ptr %111, i32 0, i32 39
  store ptr null, ptr %112, align 8, !tbaa !51
  %113 = load i32, ptr %7, align 4, !tbaa !4
  call void @llvm.lifetime.end.p0(i64 4, ptr %7) #8
  ret i32 %113
}