; Function Attrs: nounwind uwtable
define internal fastcc range(i32 0, 2) i32 @CloseFiles(ptr noundef nonnull captures(none) %0, i32 noundef range(i32 0, 2) %1, i32 noundef range(i32 0, 2) %2) unnamed_addr #0 {
  %4 = alloca [2 x %struct.timespec], align 16
  %5 = alloca %struct.stat, align 8
  %6 = getelementptr inbounds nuw i8, ptr %0, i64 32
  %7 = load i32, ptr %6, align 8, !tbaa !44
  %.not = icmp eq i32 %7, 0
  br i1 %.not, label %8, label %85

8:                                                ; preds = %3
  %9 = getelementptr inbounds nuw i8, ptr %0, i64 416
  %10 = load ptr, ptr %9, align 8, !tbaa !63
  %.not27 = icmp eq ptr %10, null
  br i1 %.not27, label %85, label %11

11:                                               ; preds = %8
  %12 = tail call i32 @fclose(ptr noundef nonnull %10)
  %.not28 = icmp eq i32 %12, 0
  br i1 %.not28, label %22, label %13

13:                                               ; preds = %11
  %14 = load ptr, ptr @stderr, align 8, !tbaa !30
  %15 = getelementptr inbounds nuw i8, ptr %0, i64 392
  %16 = load ptr, ptr %15, align 8, !tbaa !53
  %.not.i = icmp eq ptr %16, null
  %17 = select i1 %.not.i, ptr @.str.58, ptr %16
  %18 = tail call ptr @__errno_location() #25
  %19 = load i32, ptr %18, align 4, !tbaa !20
  %20 = tail call ptr @strerror(i32 noundef %19) #21
  %21 = tail call i32 (ptr, ptr, ...) @fprintf(ptr noundef %14, ptr noundef nonnull @.str.80, ptr noundef nonnull %17, ptr noundef %20) #24
  br label %22

22:                                               ; preds = %13, %11
  %.1 = phi i32 [ 0, %13 ], [ 1, %11 ]
  %.not29 = icmp eq i32 %2, 0
  br i1 %.not29, label %28, label %23

23:                                               ; preds = %22
  %24 = getelementptr inbounds nuw i8, ptr %0, i64 392
  %25 = load ptr, ptr %24, align 8, !tbaa !53
  %.not30 = icmp eq ptr %25, null
  br i1 %.not30, label %28, label %26

26:                                               ; preds = %23
  %27 = tail call i32 @unlink(ptr noundef nonnull %25) #21
  br label %28

28:                                               ; preds = %26, %23, %22
  %29 = or i32 %12, %2
  %or.cond = icmp eq i32 %29, 0
  br i1 %or.cond, label %30, label %85

30:                                               ; preds = %28
  %31 = getelementptr inbounds nuw i8, ptr %0, i64 24
  %32 = load i32, ptr %31, align 8, !tbaa !18
  %.not31 = icmp eq i32 %32, 0
  br i1 %.not31, label %85, label %33

33:                                               ; preds = %30
  %34 = getelementptr inbounds nuw i8, ptr %0, i64 384
  %35 = load ptr, ptr %34, align 8, !tbaa !61
  %36 = getelementptr inbounds nuw i8, ptr %0, i64 392
  %37 = load ptr, ptr %36, align 8, !tbaa !53
  call void @llvm.lifetime.start.p0(i64 144, ptr nonnull %5) #21
  %38 = icmp eq ptr %35, null
  %39 = icmp eq ptr %37, null
  %or.cond.i = or i1 %38, %39
  br i1 %or.cond.i, label %CopyStat.exit, label %40

40:                                               ; preds = %33
  %41 = call i32 @stat(ptr noundef nonnull readonly %35, ptr noundef nonnull %5) #21
  %.not.i37 = icmp eq i32 %41, 0
  br i1 %.not.i37, label %42, label %CopyStat.exit

42:                                               ; preds = %40
  call void @llvm.lifetime.start.p0(i64 32, ptr nonnull %4) #21
  %43 = getelementptr inbounds nuw i8, ptr %5, i64 72
  %44 = load i64, ptr %43, align 8, !tbaa !71
  store i64 %44, ptr %4, align 16, !tbaa !74
  %45 = getelementptr inbounds nuw i8, ptr %5, i64 80
  %46 = load i64, ptr %45, align 8, !tbaa !75
  %47 = getelementptr inbounds nuw i8, ptr %4, i64 8
  store i64 %46, ptr %47, align 8, !tbaa !76
  %48 = getelementptr inbounds nuw i8, ptr %5, i64 88
  %49 = load i64, ptr %48, align 8, !tbaa !77
  %50 = getelementptr inbounds nuw i8, ptr %4, i64 16
  store i64 %49, ptr %50, align 16, !tbaa !74
  %51 = getelementptr inbounds nuw i8, ptr %5, i64 96
  %52 = load i64, ptr %51, align 8, !tbaa !78
  %53 = getelementptr inbounds nuw i8, ptr %4, i64 24
  store i64 %52, ptr %53, align 8, !tbaa !76
  %54 = call i32 @utimensat(i32 noundef -100, ptr noundef nonnull %37, ptr noundef nonnull %4, i32 noundef 256) #21
  call void @llvm.lifetime.end.p0(i64 32, ptr nonnull %4) #21
  %55 = getelementptr inbounds nuw i8, ptr %5, i64 24
  %56 = load i32, ptr %55, align 8, !tbaa !79
  %57 = and i32 %56, 511
  %58 = call i32 @chmod(ptr noundef nonnull %37, i32 noundef %57) #21
  %.not14.i = icmp eq i32 %58, 0
  br i1 %.not14.i, label %65, label %59

59:                                               ; preds = %42
  %60 = load ptr, ptr @stderr, align 8, !tbaa !30
  %61 = tail call ptr @__errno_location() #25
  %62 = load i32, ptr %61, align 4, !tbaa !20
  %63 = call ptr @strerror(i32 noundef %62) #21
  %64 = call i32 (ptr, ptr, ...) @fprintf(ptr noundef %60, ptr noundef nonnull @.str.81, ptr noundef nonnull %37, ptr noundef %63) #24
  br label %65

65:                                               ; preds = %59, %42
  %66 = getelementptr inbounds nuw i8, ptr %5, i64 32
  %67 = load i32, ptr %66, align 8, !tbaa !80
  %68 = call i32 @chown(ptr noundef nonnull %37, i32 noundef -1, i32 noundef %67) #21
  %.not15.i = icmp eq i32 %68, 0
  br i1 %.not15.i, label %75, label %69

69:                                               ; preds = %65
  %70 = load ptr, ptr @stderr, align 8, !tbaa !30
  %71 = tail call ptr @__errno_location() #25
  %72 = load i32, ptr %71, align 4, !tbaa !20
  %73 = call ptr @strerror(i32 noundef %72) #21
  %74 = call i32 (ptr, ptr, ...) @fprintf(ptr noundef %70, ptr noundef nonnull @.str.82, ptr noundef nonnull %37, ptr noundef %73) #24
  br label %75

75:                                               ; preds = %69, %65
  %76 = getelementptr inbounds nuw i8, ptr %5, i64 28
  %77 = load i32, ptr %76, align 4, !tbaa !81
  %78 = call i32 @chown(ptr noundef nonnull %37, i32 noundef %77, i32 noundef -1) #21
  %.not16.i = icmp eq i32 %78, 0
  br i1 %.not16.i, label %CopyStat.exit, label %79

79:                                               ; preds = %75
  %80 = load ptr, ptr @stderr, align 8, !tbaa !30
  %81 = tail call ptr @__errno_location() #25
  %82 = load i32, ptr %81, align 4, !tbaa !20
  %83 = call ptr @strerror(i32 noundef %82) #21
  %84 = call i32 (ptr, ptr, ...) @fprintf(ptr noundef %80, ptr noundef nonnull @.str.83, ptr noundef nonnull %37, ptr noundef %83) #24
  br label %CopyStat.exit

CopyStat.exit:                                    ; preds = %33, %40, %75, %79
  call void @llvm.lifetime.end.p0(i64 144, ptr nonnull %5) #21
  br label %85

85:                                               ; preds = %28, %30, %CopyStat.exit, %8, %3
  %.0 = phi i32 [ 1, %3 ], [ 1, %CopyStat.exit ], [ 1, %30 ], [ %.1, %28 ], [ 1, %8 ]
  %86 = getelementptr inbounds nuw i8, ptr %0, i64 408
  %87 = load ptr, ptr %86, align 8, !tbaa !58
  %.not32 = icmp eq ptr %87, null
  br i1 %.not32, label %100, label %88

88:                                               ; preds = %85
  %89 = call i32 @fclose(ptr noundef nonnull %87)
  %.not33 = icmp eq i32 %89, 0
  br i1 %.not33, label %100, label %90

90:                                               ; preds = %88
  %.not34 = icmp eq i32 %.0, 0
  br i1 %.not34, label %100, label %91

91:                                               ; preds = %90
  %92 = load ptr, ptr @stderr, align 8, !tbaa !30
  %93 = getelementptr inbounds nuw i8, ptr %0, i64 384
  %94 = load ptr, ptr %93, align 8, !tbaa !61
  %.not.i38 = icmp eq ptr %94, null
  %95 = select i1 %.not.i38, ptr @.str.58, ptr %94
  %96 = tail call ptr @__errno_location() #25
  %97 = load i32, ptr %96, align 4, !tbaa !20
  %98 = call ptr @strerror(i32 noundef %97) #21
  %99 = call i32 (ptr, ptr, ...) @fprintf(ptr noundef %92, ptr noundef nonnull @.str.80, ptr noundef nonnull %95, ptr noundef %98) #24
  br label %100

100:                                              ; preds = %90, %91, %88, %85
  %.2 = phi i32 [ %.0, %88 ], [ %.0, %85 ], [ 0, %91 ], [ 0, %90 ]
  %.not35 = icmp eq i32 %1, 0
  br i1 %.not35, label %106, label %101

101:                                              ; preds = %100
  %102 = getelementptr inbounds nuw i8, ptr %0, i64 384
  %103 = load ptr, ptr %102, align 8, !tbaa !61
  %.not36 = icmp eq ptr %103, null
  br i1 %.not36, label %106, label %104

104:                                              ; preds = %101
  %105 = call i32 @unlink(ptr noundef nonnull %103) #21
  br label %106

106:                                              ; preds = %104, %101, %100
  call void @llvm.memset.p0.i64(ptr noundef nonnull align 8 dereferenceable(16) %86, i8 0, i64 16, i1 false)
  ret i32 %.2
}